; ModuleID = 'source-C-CXX/56/470.c'
source_filename = "source-C-CXX/56/470.c"
target datalayout = "e-m:e-p270:32:32-p271:32:32-p272:64:64-i64:64-f80:128-n8:16:32:64-S128"
target triple = "x86_64-pc-linux-gnu"

@.str = private unnamed_addr constant [3 x i8] c"%d\00", align 1
@.str.1 = private unnamed_addr constant [3 x i8] c"%s\00", align 1

; Function Attrs: nofree nounwind sspstrong uwtable
define dso_local i32 @main() local_unnamed_addr #0 {
  %1 = alloca i32, align 4
  %2 = alloca [32 x i8], align 16
  %3 = bitcast i32* %1 to i8*
  call void @llvm.lifetime.start.p0i8(i64 4, i8* nonnull %3) #5
  %4 = getelementptr inbounds [32 x i8], [32 x i8]* %2, i64 0, i64 0
  call void @llvm.lifetime.start.p0i8(i64 32, i8* nonnull %4) #5
  %5 = call i32 (i8*, ...) @__isoc99_scanf(i8* getelementptr inbounds ([3 x i8], [3 x i8]* @.str, i64 0, i64 0), i32* nonnull %1)
  %6 = load i32, i32* %1, align 4, !tbaa !5
  %7 = icmp sgt i32 %6, 0
  br i1 %7, label %8, label %14

8:                                                ; preds = %0, %8
  %9 = phi i32 [ %11, %8 ], [ 0, %0 ]
  %10 = call i32 (i8*, ...) @__isoc99_scanf(i8* getelementptr inbounds ([3 x i8], [3 x i8]* @.str.1, i64 0, i64 0), i8* nonnull %4)
  call void @sh(i8* nonnull %4)
  %11 = add nuw nsw i32 %9, 1
  %12 = load i32, i32* %1, align 4, !tbaa !5
  %13 = icmp slt i32 %11, %12
  br i1 %13, label %8, label %14, !llvm.loop !9

14:                                               ; preds = %8, %0
  call void @llvm.lifetime.end.p0i8(i64 32, i8* nonnull %4) #5
  call void @llvm.lifetime.end.p0i8(i64 4, i8* nonnull %3) #5
  ret i32 0
}

; Function Attrs: argmemonly mustprogress nofree nosync nounwind willreturn
declare void @llvm.lifetime.start.p0i8(i64 immarg, i8* nocapture) #1

; Function Attrs: nofree nounwind
declare noundef i32 @__isoc99_scanf(i8* nocapture noundef readonly, ...) local_unnamed_addr #2

; Function Attrs: nofree nounwind sspstrong uwtable
define dso_local void @sh(i8* nocapture readonly %0) local_unnamed_addr #0 {
  %2 = tail call i64 @strlen(i8* noundef nonnull dereferenceable(1) %0) #6
  %3 = trunc i64 %2 to i32
  %4 = shl i64 %2, 32
  %5 = add i64 %4, -4294967296
  %6 = ashr exact i64 %5, 32
  %7 = getelementptr inbounds i8, i8* %0, i64 %6
  %8 = load i8, i8* %7, align 1, !tbaa !11
  switch i8 %8, label %19 [
    i8 121, label %14
    i8 114, label %9
  ]

9:                                                ; preds = %1
  %10 = icmp sgt i32 %3, 2
  br i1 %10, label %11, label %48

11:                                               ; preds = %9
  %12 = add i64 %2, 4294967294
  %13 = and i64 %12, 4294967295
  br label %32

14:                                               ; preds = %1
  %15 = icmp sgt i32 %3, 2
  br i1 %15, label %16, label %48

16:                                               ; preds = %14
  %17 = add i64 %2, 4294967294
  %18 = and i64 %17, 4294967295
  br label %24

19:                                               ; preds = %1
  %20 = icmp sgt i32 %3, 3
  br i1 %20, label %21, label %48

21:                                               ; preds = %19
  %22 = add i64 %2, 4294967293
  %23 = and i64 %22, 4294967295
  br label %40

24:                                               ; preds = %16, %24
  %25 = phi i64 [ 0, %16 ], [ %30, %24 ]
  %26 = getelementptr inbounds i8, i8* %0, i64 %25
  %27 = load i8, i8* %26, align 1, !tbaa !11
  %28 = sext i8 %27 to i32
  %29 = tail call i32 @putchar(i32 %28)
  %30 = add nuw nsw i64 %25, 1
  %31 = icmp eq i64 %30, %18
  br i1 %31, label %48, label %24, !llvm.loop !12

32:                                               ; preds = %11, %32
  %33 = phi i64 [ 0, %11 ], [ %38, %32 ]
  %34 = getelementptr inbounds i8, i8* %0, i64 %33
  %35 = load i8, i8* %34, align 1, !tbaa !11
  %36 = sext i8 %35 to i32
  %37 = tail call i32 @putchar(i32 %36)
  %38 = add nuw nsw i64 %33, 1
  %39 = icmp eq i64 %38, %13
  br i1 %39, label %48, label %32, !llvm.loop !13

40:                                               ; preds = %21, %40
  %41 = phi i64 [ 0, %21 ], [ %46, %40 ]
  %42 = getelementptr inbounds i8, i8* %0, i64 %41
  %43 = load i8, i8* %42, align 1, !tbaa !11
  %44 = sext i8 %43 to i32
  %45 = tail call i32 @putchar(i32 %44)
  %46 = add nuw nsw i64 %41, 1
  %47 = icmp eq i64 %46, %23
  br i1 %47, label %48, label %40, !llvm.loop !14

48:                                               ; preds = %32, %24, %40, %19, %9, %14
  %49 = tail call i32 @putchar(i32 10)
  ret void
}

; Function Attrs: argmemonly mustprogress nofree nosync nounwind willreturn
declare void @llvm.lifetime.end.p0i8(i64 immarg, i8* nocapture) #1

; Function Attrs: argmemonly mustprogress nofree nounwind readonly willreturn
declare i64 @strlen(i8* nocapture) local_unnamed_addr #3

; Function Attrs: nofree nounwind
declare noundef i32 @putchar(i32 noundef) local_unnamed_addr #4


!llvm.module.flags = !{!0, !1, !2, !3}
!llvm.ident = !{!4}

!0 = !{i32 1, !"wchar_size", i32 4}
!1 = !{i32 7, !"PIC Level", i32 2}
!2 = !{i32 7, !"PIE Level", i32 2}
!3 = !{i32 7, !"uwtable", i32 1}
!4 = !{!"clang version 13.0.0"}
!5 = !{!6, !6, i64 0}
!6 = !{!"int", !7, i64 0}
!7 = !{!"omnipotent char", !8, i64 0}
!8 = !{!"Simple C/C++ TBAA"}
!9 = distinct !{!9, !10}
!10 = !{!"llvm.loop.mustprogress"}
!11 = !{!7, !7, i64 0}
!12 = distinct !{!12, !10}
!13 = distinct !{!13, !10}
!14 = distinct !{!14, !10}
